; Function Attrs: mustprogress nounwind uwtable
define internal void @_ZN3gmx12_GLOBAL__N_128DefaultExecutableEnvironmentD0Ev(ptr noundef nonnull align 8 dereferenceable(48) %0) unnamed_addr #0 align 2 {
  store ptr getelementptr inbounds inrange(-16, 32) ({ [6 x ptr] }, ptr @_ZTVN3gmx12_GLOBAL__N_128DefaultExecutableEnvironmentE, i64 0, i32 0, i64 2), ptr %0, align 8
  %2 = getelementptr inbounds i8, ptr %0, i64 40
  %3 = load ptr, ptr %2, align 8
  %.not.i.i.i.i = icmp eq ptr %3, null
  br i1 %.not.i.i.i.i, label %_ZN3gmx12_GLOBAL__N_128DefaultExecutableEnvironmentD2Ev.exit, label %4

4:                                                ; preds = %1
  tail call void @_ZNKSt10filesystem7__cxx114path5_List13_Impl_deleterclEPNS2_5_ImplE(ptr noundef nonnull align 1 dereferenceable(1) %2, ptr noundef nonnull %3) #13
  br label %_ZN3gmx12_GLOBAL__N_128DefaultExecutableEnvironmentD2Ev.exit

_ZN3gmx12_GLOBAL__N_128DefaultExecutableEnvironmentD2Ev.exit: ; preds = %1, %4
  %5 = getelementptr inbounds i8, ptr %0, i64 8
  store ptr null, ptr %2, align 8
  tail call void @_ZNSt7__cxx1112basic_stringIcSt11char_traitsIcESaIcEED1Ev(ptr noundef nonnull align 8 dereferenceable(32) %5) #13
  tail call void @_ZdlPv(ptr noundef nonnull %0) #17
  ret void
}